target datalayout = "e-m:e-p270:32:32-p271:32:32-p272:64:64-i64:64-i128:128-f80:128-n8:16:32:64-S128"
target triple = "x86_64-pc-linux-gnu"

%"class.std::__shared_count" = type { ptr }
%"class.std::shared_ptr.15" = type { %"class.std::__shared_ptr.16" }
%"class.std::__shared_ptr.16" = type { ptr, %"class.std::__shared_count" }
%"class.arrow::RecordBatch" = type { ptr, %"class.std::shared_ptr.21", i64 }
%"class.std::shared_ptr.21" = type { %"class.std::__shared_ptr.22" }
%"class.std::__shared_ptr.22" = type { ptr, %"class.std::__shared_count" }

; Function Attrs: mustprogress nounwind uwtable
define linkonce_odr noundef ptr @_ZNKSt12__shared_ptrIN5arrow6SchemaELN9__gnu_cxx12_Lock_policyE2EE3getEv(ptr noundef nonnull align 8 dereferenceable(16) %0) #0 comdat align 2 {
  %2 = alloca ptr, align 8
  store ptr %0, ptr %2, align 8, !tbaa !134
  %3 = load ptr, ptr %2, align 8
  %4 = getelementptr inbounds nuw %"class.std::__shared_ptr.22", ptr %3, i32 0, i32 0
  %5 = load ptr, ptr %4, align 8, !tbaa !396
  ret ptr %5
}

; Function Attrs: mustprogress nounwind uwtable
define linkonce_odr noundef ptr @_ZNKSt12__shared_ptrIN5arrow5ArrayELN9__gnu_cxx12_Lock_policyE2EE3getEv(ptr noundef nonnull align 8 dereferenceable(16) %0) #0 comdat align 2 {
  %2 = alloca ptr, align 8
  store ptr %0, ptr %2, align 8, !tbaa !392
  %3 = load ptr, ptr %2, align 8
  %4 = getelementptr inbounds nuw %"class.std::__shared_ptr.16", ptr %3, i32 0, i32 0
  %5 = load ptr, ptr %4, align 8, !tbaa !394
  ret ptr %5
}

; Function Attrs: mustprogress nounwind uwtable
define linkonce_odr noundef ptr @_ZNKSt19__shared_ptr_accessIN5arrow6SchemaELN9__gnu_cxx12_Lock_policyE2ELb0ELb0EE6_M_getEv(ptr noundef nonnull align 1 dereferenceable(1) %0) #0 comdat align 2 {
  %2 = alloca ptr, align 8
  store ptr %0, ptr %2, align 8, !tbaa !73
  %3 = load ptr, ptr %2, align 8
  %4 = call noundef ptr @_ZNKSt12__shared_ptrIN5arrow6SchemaELN9__gnu_cxx12_Lock_policyE2EE3getEv(ptr noundef nonnull align 8 dereferenceable(16) %3) #20
  ret ptr %4
}

; Function Attrs: mustprogress nounwind uwtable
define linkonce_odr noundef ptr @_ZNKSt19__shared_ptr_accessIN5arrow5ArrayELN9__gnu_cxx12_Lock_policyE2ELb0ELb0EE6_M_getEv(ptr noundef nonnull align 1 dereferenceable(1) %0) #0 comdat align 2 {
  %2 = alloca ptr, align 8
  store ptr %0, ptr %2, align 8, !tbaa !61
  %3 = load ptr, ptr %2, align 8
  %4 = call noundef ptr @_ZNKSt12__shared_ptrIN5arrow5ArrayELN9__gnu_cxx12_Lock_policyE2EE3getEv(ptr noundef nonnull align 8 dereferenceable(16) %3) #20
  ret ptr %4
}

; Function Attrs: mustprogress nounwind uwtable
define linkonce_odr noundef ptr @_ZNKSt19__shared_ptr_accessIN5arrow6SchemaELN9__gnu_cxx12_Lock_policyE2ELb0ELb0EEptEv(ptr noundef nonnull align 1 dereferenceable(1) %0) #0 comdat align 2 {
  %2 = alloca ptr, align 8
  store ptr %0, ptr %2, align 8, !tbaa !73
  %3 = load ptr, ptr %2, align 8
  %4 = call noundef ptr @_ZNKSt19__shared_ptr_accessIN5arrow6SchemaELN9__gnu_cxx12_Lock_policyE2ELb0ELb0EE6_M_getEv(ptr noundef nonnull align 1 dereferenceable(1) %3) #20
  ret ptr %4
}

; Function Attrs: mustprogress nounwind uwtable
define linkonce_odr noundef ptr @_ZNKSt19__shared_ptr_accessIN5arrow5ArrayELN9__gnu_cxx12_Lock_policyE2ELb0ELb0EEptEv(ptr noundef nonnull align 1 dereferenceable(1) %0) #0 comdat align 2 {
  %2 = alloca ptr, align 8
  store ptr %0, ptr %2, align 8, !tbaa !61
  %3 = load ptr, ptr %2, align 8
  %4 = call noundef ptr @_ZNKSt19__shared_ptr_accessIN5arrow5ArrayELN9__gnu_cxx12_Lock_policyE2ELb0ELb0EE6_M_getEv(ptr noundef nonnull align 1 dereferenceable(1) %3) #20
  ret ptr %4
}

; Function Attrs: mustprogress nounwind uwtable
define linkonce_odr noundef i64 @_ZNK5arrow11RecordBatch8num_rowsEv(ptr noundef nonnull align 8 dereferenceable(32) %0) #0 comdat align 2 {
  %2 = alloca ptr, align 8
  store ptr %0, ptr %2, align 8, !tbaa !53
  %3 = load ptr, ptr %2, align 8
  %4 = getelementptr inbounds nuw %"class.arrow::RecordBatch", ptr %3, i32 0, i32 2
  %5 = load i64, ptr %4, align 8, !tbaa !77
  ret i64 %5
}

; Function Attrs: mustprogress uwtable
define noundef i32 @_ZNK5arrow11RecordBatch11num_columnsEv(ptr noundef nonnull align 8 dereferenceable(32) %0) #1 align 2 {
  %2 = alloca ptr, align 8
  store ptr %0, ptr %2, align 8, !tbaa !53
  %3 = load ptr, ptr %2, align 8
  %4 = getelementptr inbounds nuw %"class.arrow::RecordBatch", ptr %3, i32 0, i32 1
  %5 = call noundef ptr @_ZNKSt19__shared_ptr_accessIN5arrow6SchemaELN9__gnu_cxx12_Lock_policyE2ELb0ELb0EEptEv(ptr noundef nonnull align 1 dereferenceable(1) %4) #20
  %6 = call noundef i32 @_ZNK5arrow6Schema10num_fieldsEv(ptr noundef nonnull align 8 dereferenceable(32) %5)
  ret i32 %6
}

; Function Attrs: mustprogress uwtable
define noundef zeroext i1 @_ZNK5arrow11RecordBatch12ApproxEqualsERKS0_RKNS_12EqualOptionsE(ptr noundef nonnull align 8 dereferenceable(32) %0, ptr noundef nonnull align 8 dereferenceable(32) %1, ptr noundef nonnull align 8 dereferenceable(24) %2) #1 align 2 personality ptr @__gxx_personality_v0 {
  %4 = alloca i1, align 1
  %5 = alloca ptr, align 8
  %6 = alloca ptr, align 8
  %7 = alloca ptr, align 8
  %8 = alloca i32, align 4
  %9 = alloca i32, align 4
  %10 = alloca %"class.std::shared_ptr.15", align 8
  %11 = alloca %"class.std::shared_ptr.15", align 8
  %12 = alloca ptr, align 8
  %13 = alloca i32, align 4
  store ptr %0, ptr %5, align 8, !tbaa !53
  store ptr %1, ptr %6, align 8, !tbaa !53
  store ptr %2, ptr %7, align 8, !tbaa !213
  %14 = load ptr, ptr %5, align 8
  %15 = call noundef i32 @_ZNK5arrow11RecordBatch11num_columnsEv(ptr noundef nonnull align 8 dereferenceable(32) %14)
  %16 = load ptr, ptr %6, align 8, !tbaa !53
  %17 = call noundef i32 @_ZNK5arrow11RecordBatch11num_columnsEv(ptr noundef nonnull align 8 dereferenceable(32) %16)
  %18 = icmp ne i32 %15, %17
  br i1 %18, label %25, label %19

19:                                               ; preds = %3
  %20 = getelementptr inbounds nuw %"class.arrow::RecordBatch", ptr %14, i32 0, i32 2
  %21 = load i64, ptr %20, align 8, !tbaa !77
  %22 = load ptr, ptr %6, align 8, !tbaa !53
  %23 = call noundef i64 @_ZNK5arrow11RecordBatch8num_rowsEv(ptr noundef nonnull align 8 dereferenceable(32) %22)
  %24 = icmp ne i64 %21, %23
  br i1 %24, label %25, label %26

25:                                               ; preds = %19, %3
  store i1 false, ptr %4, align 1
  br label %77

26:                                               ; preds = %19
  %27 = load ptr, ptr %14, align 8, !tbaa !59
  %28 = getelementptr inbounds ptr, ptr %27, i64 16
  %29 = load ptr, ptr %28, align 8
  %30 = call noundef signext i8 %29(ptr noundef nonnull align 8 dereferenceable(32) %14)
  %31 = load ptr, ptr %6, align 8, !tbaa !53
  %32 = load ptr, ptr %31, align 8, !tbaa !59
  %33 = getelementptr inbounds ptr, ptr %32, i64 16
  %34 = load ptr, ptr %33, align 8
  %35 = call noundef signext i8 %34(ptr noundef nonnull align 8 dereferenceable(32) %31)
  %36 = icmp ne i8 %30, %35
  br i1 %36, label %37, label %38

37:                                               ; preds = %26
  store i1 false, ptr %4, align 1
  br label %77

38:                                               ; preds = %26
  call void @llvm.lifetime.start.p0(i64 4, ptr %8) #20
  store i32 0, ptr %8, align 4, !tbaa !8
  br label %39

39:                                               ; preds = %71, %38
  %40 = load i32, ptr %8, align 4, !tbaa !8
  %41 = call noundef i32 @_ZNK5arrow11RecordBatch11num_columnsEv(ptr noundef nonnull align 8 dereferenceable(32) %14)
  %42 = icmp slt i32 %40, %41
  br i1 %42, label %44, label %43

43:                                               ; preds = %39
  store i32 2, ptr %9, align 4
  br label %74

44:                                               ; preds = %39
  call void @llvm.lifetime.start.p0(i64 16, ptr %10) #20
  %45 = load i32, ptr %8, align 4, !tbaa !8
  %46 = load ptr, ptr %14, align 8, !tbaa !59
  %47 = getelementptr inbounds ptr, ptr %46, i64 3
  %48 = load ptr, ptr %47, align 8
  call void %48(ptr dead_on_unwind writable sret(%"class.std::shared_ptr.15") align 8 %10, ptr noundef nonnull align 8 dereferenceable(32) %14, i32 noundef %45)
  %49 = call noundef ptr @_ZNKSt19__shared_ptr_accessIN5arrow5ArrayELN9__gnu_cxx12_Lock_policyE2ELb0ELb0EEptEv(ptr noundef nonnull align 1 dereferenceable(1) %10) #20
  call void @llvm.lifetime.start.p0(i64 16, ptr %11) #20
  %50 = load ptr, ptr %6, align 8, !tbaa !53
  %51 = load i32, ptr %8, align 4, !tbaa !8
  %52 = load ptr, ptr %50, align 8, !tbaa !59
  %53 = getelementptr inbounds ptr, ptr %52, i64 3
  %54 = load ptr, ptr %53, align 8
  invoke void %54(ptr dead_on_unwind writable sret(%"class.std::shared_ptr.15") align 8 %11, ptr noundef nonnull align 8 dereferenceable(32) %50, i32 noundef %51)
          to label %55 unwind label %61

55:                                               ; preds = %44
  %56 = load ptr, ptr %7, align 8, !tbaa !213
  %57 = invoke noundef zeroext i1 @_ZNK5arrow5Array12ApproxEqualsERKSt10shared_ptrIS0_ERKNS_12EqualOptionsE(ptr noundef nonnull align 8 dereferenceable(32) %49, ptr noundef nonnull align 8 dereferenceable(16) %11, ptr noundef nonnull align 8 dereferenceable(24) %56)
          to label %58 unwind label %65

58:                                               ; preds = %55
  %59 = xor i1 %57, true
  call void @_ZNSt12__shared_ptrIN5arrow5ArrayELN9__gnu_cxx12_Lock_policyE2EED2Ev(ptr noundef nonnull align 8 dereferenceable(16) %11) #20
  call void @llvm.lifetime.end.p0(i64 16, ptr %11) #20
  call void @_ZNSt12__shared_ptrIN5arrow5ArrayELN9__gnu_cxx12_Lock_policyE2EED2Ev(ptr noundef nonnull align 8 dereferenceable(16) %10) #20
  call void @llvm.lifetime.end.p0(i64 16, ptr %10) #20
  br i1 %59, label %60, label %70

60:                                               ; preds = %58
  store i1 false, ptr %4, align 1
  store i32 1, ptr %9, align 4
  br label %74

61:                                               ; preds = %44
  %62 = landingpad { ptr, i32 }
          cleanup
  %63 = extractvalue { ptr, i32 } %62, 0
  store ptr %63, ptr %12, align 8
  %64 = extractvalue { ptr, i32 } %62, 1
  store i32 %64, ptr %13, align 4
  br label %69

65:                                               ; preds = %55
  %66 = landingpad { ptr, i32 }
          cleanup
  %67 = extractvalue { ptr, i32 } %66, 0
  store ptr %67, ptr %12, align 8
  %68 = extractvalue { ptr, i32 } %66, 1
  store i32 %68, ptr %13, align 4
  call void @_ZNSt12__shared_ptrIN5arrow5ArrayELN9__gnu_cxx12_Lock_policyE2EED2Ev(ptr noundef nonnull align 8 dereferenceable(16) %11) #20
  br label %69

69:                                               ; preds = %65, %61
  call void @llvm.lifetime.end.p0(i64 16, ptr %11) #20
  call void @_ZNSt12__shared_ptrIN5arrow5ArrayELN9__gnu_cxx12_Lock_policyE2EED2Ev(ptr noundef nonnull align 8 dereferenceable(16) %10) #20
  call void @llvm.lifetime.end.p0(i64 16, ptr %10) #20
  call void @llvm.lifetime.end.p0(i64 4, ptr %8) #20
  br label %79

70:                                               ; preds = %58
  br label %71

71:                                               ; preds = %70
  %72 = load i32, ptr %8, align 4, !tbaa !8
  %73 = add nsw i32 %72, 1
  store i32 %73, ptr %8, align 4, !tbaa !8
  br label %39, !llvm.loop !216

74:                                               ; preds = %60, %43
  call void @llvm.lifetime.end.p0(i64 4, ptr %8) #20
  %75 = load i32, ptr %9, align 4
  switch i32 %75, label %84 [
    i32 2, label %76
    i32 1, label %77
  ]

76:                                               ; preds = %74
  store i1 true, ptr %4, align 1
  br label %77

77:                                               ; preds = %76, %74, %37, %25
  %78 = load i1, ptr %4, align 1
  ret i1 %78

79:                                               ; preds = %69
  %80 = load ptr, ptr %12, align 8
  %81 = load i32, ptr %13, align 4
  %82 = insertvalue { ptr, i32 } poison, ptr %80, 0
  %83 = insertvalue { ptr, i32 } %82, i32 %81, 1
  resume { ptr, i32 } %83

84:                                               ; preds = %74
  unreachable
}