; Function Attrs: mustprogress uwtable
define noundef zeroext i1 @_ZNK5arrow11RecordBatch12ApproxEqualsERKS0_RKNS_12EqualOptionsE(ptr noundef nonnull align 8 dereferenceable(32) %0, ptr noundef nonnull align 8 dereferenceable(32) %1, ptr noundef nonnull align 8 dereferenceable(24) %2) local_unnamed_addr #1 align 2 personality ptr @__gxx_personality_v0 {
  %4 = alloca %"class.std::shared_ptr.15", align 8
  %5 = alloca %"class.std::shared_ptr.15", align 8
  %6 = getelementptr inbounds nuw i8, ptr %0, i64 8
  %7 = load ptr, ptr %6, align 8, !tbaa !59
  %8 = tail call noundef i32 @_ZNK5arrow6Schema10num_fieldsEv(ptr noundef nonnull align 8 dereferenceable(32) %7)
  %9 = getelementptr inbounds nuw i8, ptr %1, i64 8
  %10 = load ptr, ptr %9, align 8, !tbaa !59
  %11 = tail call noundef i32 @_ZNK5arrow6Schema10num_fieldsEv(ptr noundef nonnull align 8 dereferenceable(32) %10)
  %.not = icmp eq i32 %8, %11
  br i1 %.not, label %12, label %.loopexit

12:                                               ; preds = %3
  %13 = getelementptr inbounds nuw i8, ptr %0, i64 24
  %14 = load i64, ptr %13, align 8, !tbaa !62
  %15 = getelementptr inbounds nuw i8, ptr %1, i64 24
  %16 = load i64, ptr %15, align 8, !tbaa !62
  %.not17 = icmp eq i64 %14, %16
  br i1 %.not17, label %17, label %.loopexit

17:                                               ; preds = %12
  %18 = load ptr, ptr %0, align 8, !tbaa !56
  %19 = getelementptr inbounds nuw i8, ptr %18, i64 128
  %20 = load ptr, ptr %19, align 8
  %21 = tail call noundef signext i8 %20(ptr noundef nonnull align 8 dereferenceable(32) %0)
  %22 = load ptr, ptr %1, align 8, !tbaa !56
  %23 = getelementptr inbounds nuw i8, ptr %22, i64 128
  %24 = load ptr, ptr %23, align 8
  %25 = tail call noundef signext i8 %24(ptr noundef nonnull align 8 dereferenceable(32) %1)
  %.not18 = icmp eq i8 %21, %25
  br i1 %.not18, label %.preheader, label %.loopexit

.preheader:                                       ; preds = %17
  %26 = load ptr, ptr %6, align 8, !tbaa !59
  %27 = tail call noundef i32 @_ZNK5arrow6Schema10num_fieldsEv(ptr noundef nonnull align 8 dereferenceable(32) %26)
  %28 = icmp slt i32 %27, 1
  br i1 %28, label %.loopexit, label %.lr.ph

.lr.ph:                                           ; preds = %.preheader
  %29 = getelementptr inbounds nuw i8, ptr %5, i64 8
  %30 = getelementptr inbounds nuw i8, ptr %4, i64 8
  br label %35

31:                                               ; preds = %_ZNSt12__shared_ptrIN5arrow5ArrayELN9__gnu_cxx12_Lock_policyE2EED2Ev.exit24
  %32 = add nuw nsw i32 %.01525, 1
  %33 = load ptr, ptr %6, align 8, !tbaa !59
  %34 = call noundef i32 @_ZNK5arrow6Schema10num_fieldsEv(ptr noundef nonnull align 8 dereferenceable(32) %33)
  %.not27 = icmp slt i32 %32, %34
  br i1 %.not27, label %35, label %.loopexit, !llvm.loop !213

35:                                               ; preds = %.lr.ph, %31
  %.01525 = phi i32 [ 0, %.lr.ph ], [ %32, %31 ]
  call void @llvm.lifetime.start.p0(i64 16, ptr nonnull %4) #27
  %36 = load ptr, ptr %0, align 8, !tbaa !56
  %37 = getelementptr inbounds nuw i8, ptr %36, i64 24
  %38 = load ptr, ptr %37, align 8
  call void %38(ptr dead_on_unwind nonnull writable sret(%"class.std::shared_ptr.15") align 8 %4, ptr noundef nonnull align 8 dereferenceable(32) %0, i32 noundef %.01525)
  %39 = load ptr, ptr %4, align 8, !tbaa !40
  call void @llvm.lifetime.start.p0(i64 16, ptr nonnull %5) #27
  %40 = load ptr, ptr %1, align 8, !tbaa !56
  %41 = getelementptr inbounds nuw i8, ptr %40, i64 24
  %42 = load ptr, ptr %41, align 8
  invoke void %42(ptr dead_on_unwind nonnull writable sret(%"class.std::shared_ptr.15") align 8 %5, ptr noundef nonnull align 8 dereferenceable(32) %1, i32 noundef %.01525)
          to label %43 unwind label %90

43:                                               ; preds = %35
  %44 = invoke noundef zeroext i1 @_ZNK5arrow5Array12ApproxEqualsERKSt10shared_ptrIS0_ERKNS_12EqualOptionsE(ptr noundef nonnull align 8 dereferenceable(32) %39, ptr noundef nonnull align 8 dereferenceable(16) %5, ptr noundef nonnull align 8 dereferenceable(24) %2)
          to label %45 unwind label %92

45:                                               ; preds = %43
  %46 = load ptr, ptr %29, align 8, !tbaa !51
  %.not.i.i = icmp eq ptr %46, null
  br i1 %.not.i.i, label %_ZNSt12__shared_ptrIN5arrow5ArrayELN9__gnu_cxx12_Lock_policyE2EED2Ev.exit, label %47

47:                                               ; preds = %45
  %48 = getelementptr inbounds nuw i8, ptr %46, i64 8
  %49 = load atomic i64, ptr %48 acquire, align 8
  %50 = icmp eq i64 %49, 4294967297
  %51 = trunc i64 %49 to i32
  br i1 %50, label %52, label %60

52:                                               ; preds = %47
  store i32 0, ptr %48, align 8, !tbaa !53
  %53 = getelementptr inbounds nuw i8, ptr %46, i64 12
  store i32 0, ptr %53, align 4, !tbaa !55
  %54 = load ptr, ptr %46, align 8, !tbaa !56
  %55 = getelementptr inbounds nuw i8, ptr %54, i64 16
  %56 = load ptr, ptr %55, align 8
  call void %56(ptr noundef nonnull align 8 dereferenceable(16) %46) #27
  %57 = load ptr, ptr %46, align 8, !tbaa !56
  %58 = getelementptr inbounds nuw i8, ptr %57, i64 24
  %59 = load ptr, ptr %58, align 8
  call void %59(ptr noundef nonnull align 8 dereferenceable(16) %46) #27
  br label %_ZNSt12__shared_ptrIN5arrow5ArrayELN9__gnu_cxx12_Lock_policyE2EED2Ev.exit

60:                                               ; preds = %47
  %61 = load i8, ptr @__libc_single_threaded, align 1, !tbaa !39
  %.not.i.i.i = icmp eq i8 %61, 0
  br i1 %.not.i.i.i, label %64, label %62

62:                                               ; preds = %60
  %63 = add nsw i32 %51, -1
  store i32 %63, ptr %48, align 4, !tbaa !52
  br label %_ZN9__gnu_cxx27__exchange_and_add_dispatchEPii.exit.i.i.i

64:                                               ; preds = %60
  %65 = atomicrmw volatile add ptr %48, i32 -1 acq_rel, align 4
  br label %_ZN9__gnu_cxx27__exchange_and_add_dispatchEPii.exit.i.i.i

_ZN9__gnu_cxx27__exchange_and_add_dispatchEPii.exit.i.i.i: ; preds = %64, %62
  %.0.i.i.i.i = phi i32 [ %51, %62 ], [ %65, %64 ]
  %66 = icmp eq i32 %.0.i.i.i.i, 1
  br i1 %66, label %67, label %_ZNSt12__shared_ptrIN5arrow5ArrayELN9__gnu_cxx12_Lock_policyE2EED2Ev.exit, !prof !58

67:                                               ; preds = %_ZN9__gnu_cxx27__exchange_and_add_dispatchEPii.exit.i.i.i
  call void @_ZNSt16_Sp_counted_baseILN9__gnu_cxx12_Lock_policyE2EE24_M_release_last_use_coldEv(ptr noundef nonnull align 8 dereferenceable(16) %46) #27
  br label %_ZNSt12__shared_ptrIN5arrow5ArrayELN9__gnu_cxx12_Lock_policyE2EED2Ev.exit

_ZNSt12__shared_ptrIN5arrow5ArrayELN9__gnu_cxx12_Lock_policyE2EED2Ev.exit: ; preds = %45, %52, %_ZN9__gnu_cxx27__exchange_and_add_dispatchEPii.exit.i.i.i, %67
  call void @llvm.lifetime.end.p0(i64 16, ptr nonnull %5) #27
  %68 = load ptr, ptr %30, align 8, !tbaa !51
  %.not.i.i20 = icmp eq ptr %68, null
  br i1 %.not.i.i20, label %_ZNSt12__shared_ptrIN5arrow5ArrayELN9__gnu_cxx12_Lock_policyE2EED2Ev.exit24, label %69

69:                                               ; preds = %_ZNSt12__shared_ptrIN5arrow5ArrayELN9__gnu_cxx12_Lock_policyE2EED2Ev.exit
  %70 = getelementptr inbounds nuw i8, ptr %68, i64 8
  %71 = load atomic i64, ptr %70 acquire, align 8
  %72 = icmp eq i64 %71, 4294967297
  %73 = trunc i64 %71 to i32
  br i1 %72, label %74, label %82

74:                                               ; preds = %69
  store i32 0, ptr %70, align 8, !tbaa !53
  %75 = getelementptr inbounds nuw i8, ptr %68, i64 12
  store i32 0, ptr %75, align 4, !tbaa !55
  %76 = load ptr, ptr %68, align 8, !tbaa !56
  %77 = getelementptr inbounds nuw i8, ptr %76, i64 16
  %78 = load ptr, ptr %77, align 8
  call void %78(ptr noundef nonnull align 8 dereferenceable(16) %68) #27
  %79 = load ptr, ptr %68, align 8, !tbaa !56
  %80 = getelementptr inbounds nuw i8, ptr %79, i64 24
  %81 = load ptr, ptr %80, align 8
  call void %81(ptr noundef nonnull align 8 dereferenceable(16) %68) #27
  br label %_ZNSt12__shared_ptrIN5arrow5ArrayELN9__gnu_cxx12_Lock_policyE2EED2Ev.exit24

82:                                               ; preds = %69
  %83 = load i8, ptr @__libc_single_threaded, align 1, !tbaa !39
  %.not.i.i.i21 = icmp eq i8 %83, 0
  br i1 %.not.i.i.i21, label %86, label %84

84:                                               ; preds = %82
  %85 = add nsw i32 %73, -1
  store i32 %85, ptr %70, align 4, !tbaa !52
  br label %_ZN9__gnu_cxx27__exchange_and_add_dispatchEPii.exit.i.i.i22

86:                                               ; preds = %82
  %87 = atomicrmw volatile add ptr %70, i32 -1 acq_rel, align 4
  br label %_ZN9__gnu_cxx27__exchange_and_add_dispatchEPii.exit.i.i.i22

_ZN9__gnu_cxx27__exchange_and_add_dispatchEPii.exit.i.i.i22: ; preds = %86, %84
  %.0.i.i.i.i23 = phi i32 [ %73, %84 ], [ %87, %86 ]
  %88 = icmp eq i32 %.0.i.i.i.i23, 1
  br i1 %88, label %89, label %_ZNSt12__shared_ptrIN5arrow5ArrayELN9__gnu_cxx12_Lock_policyE2EED2Ev.exit24, !prof !58

89:                                               ; preds = %_ZN9__gnu_cxx27__exchange_and_add_dispatchEPii.exit.i.i.i22
  call void @_ZNSt16_Sp_counted_baseILN9__gnu_cxx12_Lock_policyE2EE24_M_release_last_use_coldEv(ptr noundef nonnull align 8 dereferenceable(16) %68) #27
  br label %_ZNSt12__shared_ptrIN5arrow5ArrayELN9__gnu_cxx12_Lock_policyE2EED2Ev.exit24

_ZNSt12__shared_ptrIN5arrow5ArrayELN9__gnu_cxx12_Lock_policyE2EED2Ev.exit24: ; preds = %_ZNSt12__shared_ptrIN5arrow5ArrayELN9__gnu_cxx12_Lock_policyE2EED2Ev.exit, %74, %_ZN9__gnu_cxx27__exchange_and_add_dispatchEPii.exit.i.i.i22, %89
  call void @llvm.lifetime.end.p0(i64 16, ptr nonnull %4) #27
  br i1 %44, label %31, label %.loopexit

90:                                               ; preds = %35
  %91 = landingpad { ptr, i32 }
          cleanup
  br label %94

92:                                               ; preds = %43
  %93 = landingpad { ptr, i32 }
          cleanup
  call void @_ZNSt12__shared_ptrIN5arrow5ArrayELN9__gnu_cxx12_Lock_policyE2EED2Ev(ptr noundef nonnull align 8 dereferenceable(16) %5) #27
  br label %94

94:                                               ; preds = %92, %90
  %.pn = phi { ptr, i32 } [ %93, %92 ], [ %91, %90 ]
  call void @llvm.lifetime.end.p0(i64 16, ptr nonnull %5) #27
  call void @_ZNSt12__shared_ptrIN5arrow5ArrayELN9__gnu_cxx12_Lock_policyE2EED2Ev(ptr noundef nonnull align 8 dereferenceable(16) %4) #27
  call void @llvm.lifetime.end.p0(i64 16, ptr nonnull %4) #27
  resume { ptr, i32 } %.pn

.loopexit:                                        ; preds = %_ZNSt12__shared_ptrIN5arrow5ArrayELN9__gnu_cxx12_Lock_policyE2EED2Ev.exit24, %31, %.preheader, %17, %3, %12
  %.016 = phi i1 [ false, %12 ], [ false, %3 ], [ false, %17 ], [ true, %.preheader ], [ %44, %31 ], [ %44, %_ZNSt12__shared_ptrIN5arrow5ArrayELN9__gnu_cxx12_Lock_policyE2EED2Ev.exit24 ]
  ret i1 %.016
}